target datalayout = "e-m:e-p270:32:32-p271:32:32-p272:64:64-i64:64-i128:128-f80:128-n8:16:32:64-S128"
target triple = "x86_64-pc-linux-gnu"

%class.CryptData = type { [4 x %"struct.CryptData::KDF3CacheItem"], i32, [4 x i8], [4 x %"struct.CryptData::KDF5CacheItem"], i32, i32, %class.Rijndael, [256 x i32], [256 x i8], [4 x i32], [3 x i8], [4 x i16], [4 x i8] }
%"struct.CryptData::KDF3CacheItem" = type { %class.SecPassword, [8 x i8], [16 x i8], [16 x i8], i8, [7 x i8] }
%class.SecPassword = type <{ %"class.std::vector", i8, [7 x i8] }>
%"class.std::vector" = type { %"struct.std::_Vector_base" }
%"struct.std::_Vector_base" = type { %"struct.std::_Vector_base<wchar_t, std::allocator<wchar_t>>::_Vector_impl" }
%"struct.std::_Vector_base<wchar_t, std::allocator<wchar_t>>::_Vector_impl" = type { %"struct.std::_Vector_base<wchar_t, std::allocator<wchar_t>>::_Vector_impl_data" }
%"struct.std::_Vector_base<wchar_t, std::allocator<wchar_t>>::_Vector_impl_data" = type { ptr, ptr, ptr }
%"struct.CryptData::KDF5CacheItem" = type { %class.SecPassword, [16 x i8], [32 x i8], i32, [32 x i8], [32 x i8], [4 x i8] }
%class.Rijndael = type { i8, i32, [16 x i8], [15 x [4 x [4 x i8]]] }

; Function Attrs: mustprogress nounwind uwtable
define void @_ZN9CryptData9UpdKeys20EPh(ptr noundef nonnull align 8 dereferenceable(2516) %0, ptr noundef %1) #0 align 2 {
  %3 = alloca ptr, align 8
  %4 = alloca ptr, align 8
  %5 = alloca i32, align 4
  store ptr %0, ptr %3, align 8
  store ptr %1, ptr %4, align 8
  %6 = load ptr, ptr %3, align 8
  store i32 0, ptr %5, align 4
  br label %7

7:                                                ; preds = %66, %2
  %8 = load i32, ptr %5, align 4
  %9 = icmp slt i32 %8, 16
  br i1 %9, label %10, label %69

10:                                               ; preds = %7
  %11 = getelementptr inbounds %class.CryptData, ptr %6, i32 0, i32 7
  %12 = load ptr, ptr %4, align 8
  %13 = load i32, ptr %5, align 4
  %14 = sext i32 %13 to i64
  %15 = getelementptr inbounds i8, ptr %12, i64 %14
  %16 = load i8, ptr %15, align 1
  %17 = zext i8 %16 to i64
  %18 = getelementptr inbounds [256 x i32], ptr %11, i64 0, i64 %17
  %19 = load i32, ptr %18, align 4
  %20 = getelementptr inbounds %class.CryptData, ptr %6, i32 0, i32 9
  %21 = getelementptr inbounds [4 x i32], ptr %20, i64 0, i64 0
  %22 = load i32, ptr %21, align 8
  %23 = xor i32 %22, %19
  store i32 %23, ptr %21, align 8
  %24 = getelementptr inbounds %class.CryptData, ptr %6, i32 0, i32 7
  %25 = load ptr, ptr %4, align 8
  %26 = load i32, ptr %5, align 4
  %27 = add nsw i32 %26, 1
  %28 = sext i32 %27 to i64
  %29 = getelementptr inbounds i8, ptr %25, i64 %28
  %30 = load i8, ptr %29, align 1
  %31 = zext i8 %30 to i64
  %32 = getelementptr inbounds [256 x i32], ptr %24, i64 0, i64 %31
  %33 = load i32, ptr %32, align 4
  %34 = getelementptr inbounds %class.CryptData, ptr %6, i32 0, i32 9
  %35 = getelementptr inbounds [4 x i32], ptr %34, i64 0, i64 1
  %36 = load i32, ptr %35, align 4
  %37 = xor i32 %36, %33
  store i32 %37, ptr %35, align 4
  %38 = getelementptr inbounds %class.CryptData, ptr %6, i32 0, i32 7
  %39 = load ptr, ptr %4, align 8
  %40 = load i32, ptr %5, align 4
  %41 = add nsw i32 %40, 2
  %42 = sext i32 %41 to i64
  %43 = getelementptr inbounds i8, ptr %39, i64 %42
  %44 = load i8, ptr %43, align 1
  %45 = zext i8 %44 to i64
  %46 = getelementptr inbounds [256 x i32], ptr %38, i64 0, i64 %45
  %47 = load i32, ptr %46, align 4
  %48 = getelementptr inbounds %class.CryptData, ptr %6, i32 0, i32 9
  %49 = getelementptr inbounds [4 x i32], ptr %48, i64 0, i64 2
  %50 = load i32, ptr %49, align 8
  %51 = xor i32 %50, %47
  store i32 %51, ptr %49, align 8
  %52 = getelementptr inbounds %class.CryptData, ptr %6, i32 0, i32 7
  %53 = load ptr, ptr %4, align 8
  %54 = load i32, ptr %5, align 4
  %55 = add nsw i32 %54, 3
  %56 = sext i32 %55 to i64
  %57 = getelementptr inbounds i8, ptr %53, i64 %56
  %58 = load i8, ptr %57, align 1
  %59 = zext i8 %58 to i64
  %60 = getelementptr inbounds [256 x i32], ptr %52, i64 0, i64 %59
  %61 = load i32, ptr %60, align 4
  %62 = getelementptr inbounds %class.CryptData, ptr %6, i32 0, i32 9
  %63 = getelementptr inbounds [4 x i32], ptr %62, i64 0, i64 3
  %64 = load i32, ptr %63, align 4
  %65 = xor i32 %64, %61
  store i32 %65, ptr %63, align 4
  br label %66

66:                                               ; preds = %10
  %67 = load i32, ptr %5, align 4
  %68 = add nsw i32 %67, 4
  store i32 %68, ptr %5, align 4
  br label %7, !llvm.loop !15

69:                                               ; preds = %7
  ret void
}

; Function Attrs: mustprogress nounwind uwtable
define linkonce_odr void @_Z7RawPut4jPv(i32 noundef %0, ptr noundef %1) #0 comdat {
  %3 = alloca i32, align 4
  %4 = alloca ptr, align 8
  store i32 %0, ptr %3, align 4
  store ptr %1, ptr %4, align 8
  %5 = load i32, ptr %3, align 4
  %6 = load ptr, ptr %4, align 8
  store i32 %5, ptr %6, align 4
  ret void
}

; Function Attrs: mustprogress nounwind uwtable
define linkonce_odr noundef i32 @_Z7RawGet4PKv(ptr noundef %0) #0 comdat {
  %2 = alloca ptr, align 8
  store ptr %0, ptr %2, align 8
  %3 = load ptr, ptr %2, align 8
  %4 = load i32, ptr %3, align 4
  ret i32 %4
}

; Function Attrs: mustprogress uwtable
define void @_ZN9CryptData14EncryptBlock20EPh(ptr noundef nonnull align 8 dereferenceable(2516) %0, ptr noundef %1) #1 align 2 {
  %3 = alloca ptr, align 8
  %4 = alloca ptr, align 8
  %5 = alloca i32, align 4
  %6 = alloca i32, align 4
  %7 = alloca i32, align 4
  %8 = alloca i32, align 4
  %9 = alloca i32, align 4
  %10 = alloca i32, align 4
  %11 = alloca i32, align 4
  %12 = alloca i32, align 4
  store ptr %0, ptr %3, align 8
  store ptr %1, ptr %4, align 8
  %13 = load ptr, ptr %3, align 8
  %14 = load ptr, ptr %4, align 8
  %15 = getelementptr inbounds i8, ptr %14, i64 0
  %16 = call noundef i32 @_Z7RawGet4PKv(ptr noundef %15)
  %17 = getelementptr inbounds %class.CryptData, ptr %13, i32 0, i32 9
  %18 = getelementptr inbounds [4 x i32], ptr %17, i64 0, i64 0
  %19 = load i32, ptr %18, align 8
  %20 = xor i32 %16, %19
  store i32 %20, ptr %5, align 4
  %21 = load ptr, ptr %4, align 8
  %22 = getelementptr inbounds i8, ptr %21, i64 4
  %23 = call noundef i32 @_Z7RawGet4PKv(ptr noundef %22)
  %24 = getelementptr inbounds %class.CryptData, ptr %13, i32 0, i32 9
  %25 = getelementptr inbounds [4 x i32], ptr %24, i64 0, i64 1
  %26 = load i32, ptr %25, align 4
  %27 = xor i32 %23, %26
  store i32 %27, ptr %6, align 4
  %28 = load ptr, ptr %4, align 8
  %29 = getelementptr inbounds i8, ptr %28, i64 8
  %30 = call noundef i32 @_Z7RawGet4PKv(ptr noundef %29)
  %31 = getelementptr inbounds %class.CryptData, ptr %13, i32 0, i32 9
  %32 = getelementptr inbounds [4 x i32], ptr %31, i64 0, i64 2
  %33 = load i32, ptr %32, align 8
  %34 = xor i32 %30, %33
  store i32 %34, ptr %7, align 4
  %35 = load ptr, ptr %4, align 8
  %36 = getelementptr inbounds i8, ptr %35, i64 12
  %37 = call noundef i32 @_Z7RawGet4PKv(ptr noundef %36)
  %38 = getelementptr inbounds %class.CryptData, ptr %13, i32 0, i32 9
  %39 = getelementptr inbounds [4 x i32], ptr %38, i64 0, i64 3
  %40 = load i32, ptr %39, align 4
  %41 = xor i32 %37, %40
  store i32 %41, ptr %8, align 4
  store i32 0, ptr %12, align 4
  br label %42

42:                                               ; preds = %156, %2
  %43 = load i32, ptr %12, align 4
  %44 = icmp slt i32 %43, 32
  br i1 %44, label %45, label %159

45:                                               ; preds = %42
  %46 = load i32, ptr %7, align 4
  %47 = load i32, ptr %8, align 4
  %48 = shl i32 %47, 11
  %49 = load i32, ptr %8, align 4
  %50 = lshr i32 %49, 21
  %51 = or i32 %48, %50
  %52 = add i32 %46, %51
  %53 = getelementptr inbounds %class.CryptData, ptr %13, i32 0, i32 9
  %54 = load i32, ptr %12, align 4
  %55 = and i32 %54, 3
  %56 = sext i32 %55 to i64
  %57 = getelementptr inbounds [4 x i32], ptr %53, i64 0, i64 %56
  %58 = load i32, ptr %57, align 4
  %59 = xor i32 %52, %58
  store i32 %59, ptr %9, align 4
  %60 = load i32, ptr %5, align 4
  %61 = getelementptr inbounds %class.CryptData, ptr %13, i32 0, i32 8
  %62 = load i32, ptr %9, align 4
  %63 = and i32 %62, 255
  %64 = zext i32 %63 to i64
  %65 = getelementptr inbounds [256 x i8], ptr %61, i64 0, i64 %64
  %66 = load i8, ptr %65, align 1
  %67 = zext i8 %66 to i32
  %68 = getelementptr inbounds %class.CryptData, ptr %13, i32 0, i32 8
  %69 = load i32, ptr %9, align 4
  %70 = lshr i32 %69, 8
  %71 = and i32 %70, 255
  %72 = sext i32 %71 to i64
  %73 = getelementptr inbounds [256 x i8], ptr %68, i64 0, i64 %72
  %74 = load i8, ptr %73, align 1
  %75 = zext i8 %74 to i32
  %76 = shl i32 %75, 8
  %77 = or i32 %67, %76
  %78 = getelementptr inbounds %class.CryptData, ptr %13, i32 0, i32 8
  %79 = load i32, ptr %9, align 4
  %80 = lshr i32 %79, 16
  %81 = and i32 %80, 255
  %82 = sext i32 %81 to i64
  %83 = getelementptr inbounds [256 x i8], ptr %78, i64 0, i64 %82
  %84 = load i8, ptr %83, align 1
  %85 = zext i8 %84 to i32
  %86 = shl i32 %85, 16
  %87 = or i32 %77, %86
  %88 = getelementptr inbounds %class.CryptData, ptr %13, i32 0, i32 8
  %89 = load i32, ptr %9, align 4
  %90 = lshr i32 %89, 24
  %91 = and i32 %90, 255
  %92 = sext i32 %91 to i64
  %93 = getelementptr inbounds [256 x i8], ptr %88, i64 0, i64 %92
  %94 = load i8, ptr %93, align 1
  %95 = zext i8 %94 to i32
  %96 = shl i32 %95, 24
  %97 = or i32 %87, %96
  %98 = xor i32 %60, %97
  store i32 %98, ptr %10, align 4
  %99 = load i32, ptr %8, align 4
  %100 = load i32, ptr %7, align 4
  %101 = shl i32 %100, 17
  %102 = load i32, ptr %7, align 4
  %103 = lshr i32 %102, 15
  %104 = or i32 %101, %103
  %105 = xor i32 %99, %104
  %106 = getelementptr inbounds %class.CryptData, ptr %13, i32 0, i32 9
  %107 = load i32, ptr %12, align 4
  %108 = and i32 %107, 3
  %109 = sext i32 %108 to i64
  %110 = getelementptr inbounds [4 x i32], ptr %106, i64 0, i64 %109
  %111 = load i32, ptr %110, align 4
  %112 = add i32 %105, %111
  store i32 %112, ptr %9, align 4
  %113 = load i32, ptr %6, align 4
  %114 = getelementptr inbounds %class.CryptData, ptr %13, i32 0, i32 8
  %115 = load i32, ptr %9, align 4
  %116 = and i32 %115, 255
  %117 = zext i32 %116 to i64
  %118 = getelementptr inbounds [256 x i8], ptr %114, i64 0, i64 %117
  %119 = load i8, ptr %118, align 1
  %120 = zext i8 %119 to i32
  %121 = getelementptr inbounds %class.CryptData, ptr %13, i32 0, i32 8
  %122 = load i32, ptr %9, align 4
  %123 = lshr i32 %122, 8
  %124 = and i32 %123, 255
  %125 = sext i32 %124 to i64
  %126 = getelementptr inbounds [256 x i8], ptr %121, i64 0, i64 %125
  %127 = load i8, ptr %126, align 1
  %128 = zext i8 %127 to i32
  %129 = shl i32 %128, 8
  %130 = or i32 %120, %129
  %131 = getelementptr inbounds %class.CryptData, ptr %13, i32 0, i32 8
  %132 = load i32, ptr %9, align 4
  %133 = lshr i32 %132, 16
  %134 = and i32 %133, 255
  %135 = sext i32 %134 to i64
  %136 = getelementptr inbounds [256 x i8], ptr %131, i64 0, i64 %135
  %137 = load i8, ptr %136, align 1
  %138 = zext i8 %137 to i32
  %139 = shl i32 %138, 16
  %140 = or i32 %130, %139
  %141 = getelementptr inbounds %class.CryptData, ptr %13, i32 0, i32 8
  %142 = load i32, ptr %9, align 4
  %143 = lshr i32 %142, 24
  %144 = and i32 %143, 255
  %145 = sext i32 %144 to i64
  %146 = getelementptr inbounds [256 x i8], ptr %141, i64 0, i64 %145
  %147 = load i8, ptr %146, align 1
  %148 = zext i8 %147 to i32
  %149 = shl i32 %148, 24
  %150 = or i32 %140, %149
  %151 = xor i32 %113, %150
  store i32 %151, ptr %11, align 4
  %152 = load i32, ptr %7, align 4
  store i32 %152, ptr %5, align 4
  %153 = load i32, ptr %8, align 4
  store i32 %153, ptr %6, align 4
  %154 = load i32, ptr %10, align 4
  store i32 %154, ptr %7, align 4
  %155 = load i32, ptr %11, align 4
  store i32 %155, ptr %8, align 4
  br label %156

156:                                              ; preds = %45
  %157 = load i32, ptr %12, align 4
  %158 = add nsw i32 %157, 1
  store i32 %158, ptr %12, align 4
  br label %42, !llvm.loop !14

159:                                              ; preds = %42
  %160 = load i32, ptr %7, align 4
  %161 = getelementptr inbounds %class.CryptData, ptr %13, i32 0, i32 9
  %162 = getelementptr inbounds [4 x i32], ptr %161, i64 0, i64 0
  %163 = load i32, ptr %162, align 8
  %164 = xor i32 %160, %163
  %165 = load ptr, ptr %4, align 8
  %166 = getelementptr inbounds i8, ptr %165, i64 0
  call void @_Z7RawPut4jPv(i32 noundef %164, ptr noundef %166)
  %167 = load i32, ptr %8, align 4
  %168 = getelementptr inbounds %class.CryptData, ptr %13, i32 0, i32 9
  %169 = getelementptr inbounds [4 x i32], ptr %168, i64 0, i64 1
  %170 = load i32, ptr %169, align 4
  %171 = xor i32 %167, %170
  %172 = load ptr, ptr %4, align 8
  %173 = getelementptr inbounds i8, ptr %172, i64 4
  call void @_Z7RawPut4jPv(i32 noundef %171, ptr noundef %173)
  %174 = load i32, ptr %5, align 4
  %175 = getelementptr inbounds %class.CryptData, ptr %13, i32 0, i32 9
  %176 = getelementptr inbounds [4 x i32], ptr %175, i64 0, i64 2
  %177 = load i32, ptr %176, align 8
  %178 = xor i32 %174, %177
  %179 = load ptr, ptr %4, align 8
  %180 = getelementptr inbounds i8, ptr %179, i64 8
  call void @_Z7RawPut4jPv(i32 noundef %178, ptr noundef %180)
  %181 = load i32, ptr %6, align 4
  %182 = getelementptr inbounds %class.CryptData, ptr %13, i32 0, i32 9
  %183 = getelementptr inbounds [4 x i32], ptr %182, i64 0, i64 3
  %184 = load i32, ptr %183, align 4
  %185 = xor i32 %181, %184
  %186 = load ptr, ptr %4, align 8
  %187 = getelementptr inbounds i8, ptr %186, i64 12
  call void @_Z7RawPut4jPv(i32 noundef %185, ptr noundef %187)
  %188 = load ptr, ptr %4, align 8
  call void @_ZN9CryptData9UpdKeys20EPh(ptr noundef nonnull align 8 dereferenceable(2516) %13, ptr noundef %188)
  ret void
}