; Function Attrs: mustprogress nofree norecurse nosync nounwind memory(argmem: readwrite) uwtable
define void @_ZN9CryptData14EncryptBlock20EPh(ptr noundef nonnull align 8 captures(none) dereferenceable(2516) %0, ptr noundef captures(none) %1) local_unnamed_addr #0 align 2 {
  %3 = load i32, ptr %1, align 4
  %4 = getelementptr inbounds nuw i8, ptr %0, i64 2488
  %5 = load i32, ptr %4, align 8
  %6 = xor i32 %5, %3
  %7 = getelementptr inbounds nuw i8, ptr %1, i64 4
  %8 = load i32, ptr %7, align 4
  %9 = getelementptr inbounds nuw i8, ptr %0, i64 2492
  %10 = load i32, ptr %9, align 4
  %11 = xor i32 %10, %8
  %12 = getelementptr inbounds nuw i8, ptr %1, i64 8
  %13 = load i32, ptr %12, align 4
  %14 = getelementptr inbounds nuw i8, ptr %0, i64 2496
  %15 = load i32, ptr %14, align 8
  %16 = xor i32 %15, %13
  %17 = getelementptr inbounds nuw i8, ptr %1, i64 12
  %18 = load i32, ptr %17, align 4
  %19 = getelementptr inbounds nuw i8, ptr %0, i64 2500
  %20 = load i32, ptr %19, align 4
  %21 = xor i32 %20, %18
  %22 = getelementptr inbounds nuw i8, ptr %0, i64 2232
  br label %23

23:                                               ; preds = %2, %23
  %.045 = phi i32 [ 0, %2 ], [ %92, %23 ]
  %.03744 = phi i32 [ %6, %2 ], [ %.03942, %23 ]
  %.03843 = phi i32 [ %11, %2 ], [ %.04041, %23 ]
  %.03942 = phi i32 [ %16, %2 ], [ %59, %23 ]
  %.04041 = phi i32 [ %21, %2 ], [ %91, %23 ]
  %24 = tail call i32 @llvm.fshl.i32(i32 %.04041, i32 %.04041, i32 11)
  %25 = add i32 %.03942, %24
  %26 = and i32 %.045, 3
  %27 = zext nneg i32 %26 to i64
  %28 = getelementptr inbounds nuw [4 x i32], ptr %4, i64 0, i64 %27
  %29 = load i32, ptr %28, align 4
  %30 = xor i32 %29, %25
  %31 = and i32 %30, 255
  %32 = zext nneg i32 %31 to i64
  %33 = getelementptr inbounds nuw [256 x i8], ptr %22, i64 0, i64 %32
  %34 = load i8, ptr %33, align 1
  %35 = zext i8 %34 to i32
  %36 = lshr i32 %30, 8
  %37 = and i32 %36, 255
  %38 = zext nneg i32 %37 to i64
  %39 = getelementptr inbounds nuw [256 x i8], ptr %22, i64 0, i64 %38
  %40 = load i8, ptr %39, align 1
  %41 = zext i8 %40 to i32
  %42 = shl nuw nsw i32 %41, 8
  %43 = or disjoint i32 %42, %35
  %44 = lshr i32 %30, 16
  %45 = and i32 %44, 255
  %46 = zext nneg i32 %45 to i64
  %47 = getelementptr inbounds nuw [256 x i8], ptr %22, i64 0, i64 %46
  %48 = load i8, ptr %47, align 1
  %49 = zext i8 %48 to i32
  %50 = shl nuw nsw i32 %49, 16
  %51 = or disjoint i32 %43, %50
  %52 = lshr i32 %30, 24
  %53 = zext nneg i32 %52 to i64
  %54 = getelementptr inbounds nuw [256 x i8], ptr %22, i64 0, i64 %53
  %55 = load i8, ptr %54, align 1
  %56 = zext i8 %55 to i32
  %57 = shl nuw i32 %56, 24
  %58 = or disjoint i32 %51, %57
  %59 = xor i32 %58, %.03744
  %60 = tail call i32 @llvm.fshl.i32(i32 %.03942, i32 %.03942, i32 17)
  %61 = xor i32 %60, %.04041
  %62 = add i32 %29, %61
  %63 = and i32 %62, 255
  %64 = zext nneg i32 %63 to i64
  %65 = getelementptr inbounds nuw [256 x i8], ptr %22, i64 0, i64 %64
  %66 = load i8, ptr %65, align 1
  %67 = zext i8 %66 to i32
  %68 = lshr i32 %62, 8
  %69 = and i32 %68, 255
  %70 = zext nneg i32 %69 to i64
  %71 = getelementptr inbounds nuw [256 x i8], ptr %22, i64 0, i64 %70
  %72 = load i8, ptr %71, align 1
  %73 = zext i8 %72 to i32
  %74 = shl nuw nsw i32 %73, 8
  %75 = or disjoint i32 %74, %67
  %76 = lshr i32 %62, 16
  %77 = and i32 %76, 255
  %78 = zext nneg i32 %77 to i64
  %79 = getelementptr inbounds nuw [256 x i8], ptr %22, i64 0, i64 %78
  %80 = load i8, ptr %79, align 1
  %81 = zext i8 %80 to i32
  %82 = shl nuw nsw i32 %81, 16
  %83 = or disjoint i32 %75, %82
  %84 = lshr i32 %62, 24
  %85 = zext nneg i32 %84 to i64
  %86 = getelementptr inbounds nuw [256 x i8], ptr %22, i64 0, i64 %85
  %87 = load i8, ptr %86, align 1
  %88 = zext i8 %87 to i32
  %89 = shl nuw i32 %88, 24
  %90 = or disjoint i32 %83, %89
  %91 = xor i32 %90, %.03843
  %92 = add nuw nsw i32 %.045, 1
  %exitcond.not = icmp eq i32 %92, 32
  br i1 %exitcond.not, label %93, label %23, !llvm.loop !13

93:                                               ; preds = %23
  %94 = xor i32 %59, %5
  store i32 %94, ptr %1, align 4
  %95 = load i32, ptr %9, align 4
  %96 = xor i32 %95, %91
  store i32 %96, ptr %7, align 4
  %97 = load i32, ptr %14, align 8
  %98 = xor i32 %97, %.03942
  store i32 %98, ptr %12, align 4
  %99 = load i32, ptr %19, align 4
  %100 = xor i32 %99, %.04041
  store i32 %100, ptr %17, align 4
  %101 = getelementptr inbounds nuw i8, ptr %0, i64 1208
  %.promoted.i = load i32, ptr %4, align 8
  %.promoted10.i = load i32, ptr %9, align 4
  %.promoted11.i = load i32, ptr %14, align 8
  %.promoted12.i = load i32, ptr %19, align 4
  br label %102

102:                                              ; preds = %102, %93
  %indvars.iv.i = phi i64 [ 0, %93 ], [ %indvars.iv.next.i, %102 ]
  %103 = phi i32 [ %.promoted.i, %93 ], [ %112, %102 ]
  %104 = phi i32 [ %.promoted10.i, %93 ], [ %119, %102 ]
  %105 = phi i32 [ %.promoted11.i, %93 ], [ %126, %102 ]
  %106 = phi i32 [ %.promoted12.i, %93 ], [ %133, %102 ]
  %107 = getelementptr inbounds nuw i8, ptr %1, i64 %indvars.iv.i
  %108 = load i8, ptr %107, align 1
  %109 = zext i8 %108 to i64
  %110 = getelementptr inbounds nuw [256 x i32], ptr %101, i64 0, i64 %109
  %111 = load i32, ptr %110, align 4
  %112 = xor i32 %111, %103
  store i32 %112, ptr %4, align 8
  %113 = or disjoint i64 %indvars.iv.i, 1
  %114 = getelementptr inbounds nuw i8, ptr %1, i64 %113
  %115 = load i8, ptr %114, align 1
  %116 = zext i8 %115 to i64
  %117 = getelementptr inbounds nuw [256 x i32], ptr %101, i64 0, i64 %116
  %118 = load i32, ptr %117, align 4
  %119 = xor i32 %118, %104
  store i32 %119, ptr %9, align 4
  %120 = or disjoint i64 %indvars.iv.i, 2
  %121 = getelementptr inbounds nuw i8, ptr %1, i64 %120
  %122 = load i8, ptr %121, align 1
  %123 = zext i8 %122 to i64
  %124 = getelementptr inbounds nuw [256 x i32], ptr %101, i64 0, i64 %123
  %125 = load i32, ptr %124, align 4
  %126 = xor i32 %125, %105
  store i32 %126, ptr %14, align 8
  %127 = or disjoint i64 %indvars.iv.i, 3
  %128 = getelementptr inbounds nuw i8, ptr %1, i64 %127
  %129 = load i8, ptr %128, align 1
  %130 = zext i8 %129 to i64
  %131 = getelementptr inbounds nuw [256 x i32], ptr %101, i64 0, i64 %130
  %132 = load i32, ptr %131, align 4
  %133 = xor i32 %132, %106
  store i32 %133, ptr %19, align 4
  %indvars.iv.next.i = add nuw nsw i64 %indvars.iv.i, 4
  %134 = icmp samesign ult i64 %indvars.iv.i, 12
  br i1 %134, label %102, label %_ZN9CryptData9UpdKeys20EPh.exit, !llvm.loop !14

_ZN9CryptData9UpdKeys20EPh.exit:                  ; preds = %102
  ret void
}